target datalayout = "e-m:e-p270:32:32-p271:32:32-p272:64:64-i64:64-i128:128-f80:128-n8:16:32:64-S128"
target triple = "x86_64-pc-linux-gnu"

%struct.PgArchData = type { i32, %struct.pg_atomic_uint32 }
%struct.pg_atomic_uint32 = type { i32 }

@.str.1 = private unnamed_addr constant [14 x i8] c"Archiver Data\00", align 1
@PgArch = internal global ptr null, align 8

; Function Attrs: inlinehint nounwind uwtable
define internal void @pg_atomic_init_u32_impl(ptr noundef %0, i32 noundef %1) #4 {
  %3 = alloca ptr, align 8
  %4 = alloca i32, align 4
  store ptr %0, ptr %3, align 8
  store i32 %1, ptr %4, align 4
  %5 = load i32, ptr %4, align 4
  %6 = load ptr, ptr %3, align 8
  %7 = getelementptr inbounds nuw %struct.pg_atomic_uint32, ptr %6, i32 0, i32 0
  store volatile i32 %5, ptr %7, align 4
  ret void
}

; Function Attrs: inlinehint nounwind uwtable
define internal void @pg_atomic_init_u32(ptr noundef %0, i32 noundef %1) #4 {
  %3 = alloca ptr, align 8
  %4 = alloca i32, align 4
  store ptr %0, ptr %3, align 8
  store i32 %1, ptr %4, align 4
  %5 = load ptr, ptr %3, align 8
  %6 = load i32, ptr %4, align 4
  call void @pg_atomic_init_u32_impl(ptr noundef %5, i32 noundef %6)
  ret void
}

; Function Attrs: nounwind uwtable
define dso_local i64 @PgArchShmemSize() #0 {
  %1 = alloca i64, align 8
  call void @llvm.lifetime.start.p0(i64 8, ptr %1) #14
  store i64 0, ptr %1, align 8
  %2 = load i64, ptr %1, align 8
  %3 = call i64 @add_size(i64 noundef %2, i64 noundef 8)
  store i64 %3, ptr %1, align 8
  %4 = load i64, ptr %1, align 8
  call void @llvm.lifetime.end.p0(i64 8, ptr %1) #14
  ret i64 %4
}

; Function Attrs: nounwind uwtable
define dso_local void @PgArchShmemInit() #0 {
  %1 = alloca i8, align 1
  %2 = alloca ptr, align 8
  %3 = alloca i32, align 4
  %4 = alloca i64, align 8
  %5 = alloca ptr, align 8
  %6 = alloca ptr, align 8
  call void @llvm.lifetime.start.p0(i64 1, ptr %1) #14
  %7 = call i64 @PgArchShmemSize()
  %8 = call ptr @ShmemInitStruct(ptr noundef @.str.1, i64 noundef %7, ptr noundef %1)
  store ptr %8, ptr @PgArch, align 8
  %9 = load i8, ptr %1, align 1, !range !4, !noundef !5
  %10 = trunc i8 %9 to i1
  br i1 %10, label %54, label %11

11:                                               ; preds = %0
  br label %12

12:                                               ; preds = %11
  call void @llvm.lifetime.start.p0(i64 8, ptr %2) #14
  %13 = load ptr, ptr @PgArch, align 8
  store ptr %13, ptr %2, align 8
  call void @llvm.lifetime.start.p0(i64 4, ptr %3) #14
  store i32 0, ptr %3, align 4
  call void @llvm.lifetime.start.p0(i64 8, ptr %4) #14
  %14 = call i64 @PgArchShmemSize()
  store i64 %14, ptr %4, align 8
  %15 = load ptr, ptr %2, align 8
  %16 = ptrtoint ptr %15 to i64
  %17 = and i64 %16, 7
  %18 = icmp eq i64 %17, 0
  br i1 %18, label %19, label %42

19:                                               ; preds = %12
  %20 = load i64, ptr %4, align 8
  %21 = and i64 %20, 7
  %22 = icmp eq i64 %21, 0
  br i1 %22, label %23, label %42

23:                                               ; preds = %19
  %24 = load i32, ptr %3, align 4
  %25 = icmp eq i32 %24, 0
  br i1 %25, label %26, label %42

26:                                               ; preds = %23
  %27 = load i64, ptr %4, align 8
  %28 = icmp ule i64 %27, 1024
  br i1 %28, label %29, label %42

29:                                               ; preds = %26
  call void @llvm.lifetime.start.p0(i64 8, ptr %5) #14
  %30 = load ptr, ptr %2, align 8
  store ptr %30, ptr %5, align 8
  call void @llvm.lifetime.start.p0(i64 8, ptr %6) #14
  %31 = load ptr, ptr %5, align 8
  %32 = load i64, ptr %4, align 8
  %33 = getelementptr inbounds nuw i8, ptr %31, i64 %32
  store ptr %33, ptr %6, align 8
  br label %34

34:                                               ; preds = %38, %29
  %35 = load ptr, ptr %5, align 8
  %36 = load ptr, ptr %6, align 8
  %37 = icmp ult ptr %35, %36
  br i1 %37, label %38, label %41

38:                                               ; preds = %34
  %39 = load ptr, ptr %5, align 8
  %40 = getelementptr inbounds nuw i64, ptr %39, i32 1
  store ptr %40, ptr %5, align 8
  store i64 0, ptr %39, align 8
  br label %34, !llvm.loop !6

41:                                               ; preds = %34
  call void @llvm.lifetime.end.p0(i64 8, ptr %6) #14
  call void @llvm.lifetime.end.p0(i64 8, ptr %5) #14
  br label %47

42:                                               ; preds = %26, %23, %19, %12
  %43 = load ptr, ptr %2, align 8
  %44 = load i32, ptr %3, align 4
  %45 = trunc i32 %44 to i8
  %46 = load i64, ptr %4, align 8
  call void @llvm.memset.p0.i64(ptr align 1 %43, i8 %45, i64 %46, i1 false)
  br label %47

47:                                               ; preds = %42, %41
  call void @llvm.lifetime.end.p0(i64 8, ptr %4) #14
  call void @llvm.lifetime.end.p0(i64 4, ptr %3) #14
  call void @llvm.lifetime.end.p0(i64 8, ptr %2) #14
  br label %48

48:                                               ; preds = %47
  br label %49

49:                                               ; preds = %48
  %50 = load ptr, ptr @PgArch, align 8
  %51 = getelementptr inbounds nuw %struct.PgArchData, ptr %50, i32 0, i32 0
  store i32 -1, ptr %51, align 4
  %52 = load ptr, ptr @PgArch, align 8
  %53 = getelementptr inbounds nuw %struct.PgArchData, ptr %52, i32 0, i32 1
  call void @pg_atomic_init_u32(ptr noundef %53, i32 noundef 0)
  br label %54

54:                                               ; preds = %49, %0
  call void @llvm.lifetime.end.p0(i64 1, ptr %1) #14
  ret void
}