; Function Attrs: nounwind uwtable
define dso_local void @PgArchShmemInit() local_unnamed_addr #0 {
  %1 = alloca i8, align 1
  call void @llvm.lifetime.start.p0(i64 1, ptr nonnull %1) #19
  %2 = tail call i64 @add_size(i64 noundef 0, i64 noundef 8) #19
  %3 = call ptr @ShmemInitStruct(ptr noundef nonnull @.str.1, i64 noundef %2, ptr noundef nonnull %1) #19
  store ptr %3, ptr @PgArch, align 8
  %4 = load i8, ptr %1, align 1, !range !4, !noundef !5
  %5 = trunc nuw i8 %4 to i1
  br i1 %5, label %24, label %6

6:                                                ; preds = %0
  %7 = call i64 @add_size(i64 noundef 0, i64 noundef 8) #19
  %8 = ptrtoint ptr %3 to i64
  %9 = and i64 %8, 7
  %10 = icmp eq i64 %9, 0
  br i1 %10, label %11, label %.loopexit.sink.split

11:                                               ; preds = %6
  %12 = and i64 %7, 7
  %13 = icmp eq i64 %12, 0
  %14 = icmp ult i64 %7, 1025
  %or.cond3 = and i1 %14, %13
  br i1 %or.cond3, label %15, label %.loopexit.sink.split

15:                                               ; preds = %11
  %.not = icmp eq i64 %7, 0
  br i1 %.not, label %.loopexit, label %.lr.ph.preheader

.lr.ph.preheader:                                 ; preds = %15
  %16 = add i64 %7, %8
  %17 = add i64 %8, 8
  %umax = call i64 @llvm.umax.i64(i64 %16, i64 %17)
  %18 = xor i64 %8, -1
  %19 = add i64 %umax, %18
  %20 = and i64 %19, -8
  %21 = add i64 %20, 8
  br label %.loopexit.sink.split

.loopexit.sink.split:                             ; preds = %6, %11, %.lr.ph.preheader
  %.sink = phi i64 [ %21, %.lr.ph.preheader ], [ %7, %11 ], [ %7, %6 ]
  call void @llvm.memset.p0.i64(ptr align 1 %3, i8 0, i64 %.sink, i1 false)
  br label %.loopexit

.loopexit:                                        ; preds = %.loopexit.sink.split, %15
  %22 = load ptr, ptr @PgArch, align 8
  store i32 -1, ptr %22, align 4
  %23 = getelementptr inbounds nuw i8, ptr %22, i64 4
  store volatile i32 0, ptr %23, align 4
  br label %24

24:                                               ; preds = %.loopexit, %0
  call void @llvm.lifetime.end.p0(i64 1, ptr nonnull %1) #19
  ret void
}